(igroups
Groups
p0
(dp1
S'groups'
p2
(lp3
(igroup
Group
p4
(dp5
S'gid'
p6
I1
sS'gname'
p7
S'kv-51'
p8
sba(igroup
Group
p9
(dp10
g6
I3
sg7
S'(0_0)'
p11
sba(igroup
Group
p12
(dp13
g6
I4
sg7
S'pi-314'
p14
sbasb.