(istudents
Students
p0
(dp1
S'students'
p2
(lp3
(istudent
Student
p4
(dp5
S'age'
p6
I19
sS'gid'
p7
I1
sS'name'
p8
S'Igor Tymoshenko'
p9
sS'sid'
p10
I1
sba(istudent
Student
p11
(dp12
g6
I5
sg7
I3
sg8
S'Ololo'
p13
sg10
I3
sba(istudent
Student
p14
(dp15
g6
I24
sg7
I3
sg8
S'Sunshine)'
p16
sg10
I4
sba(istudent
Student
p17
(dp18
g6
I18
sg7
I1
sg8
S'Igor Moon'
p19
sg10
I7
sba(istudent
Student
p20
(dp21
g6
I19
sg7
I1
sg8
S'Vadim Maslou'
p22
sg10
I9
sba(istudent
Student
p23
(dp24
g6
I15
sg7
I1
sg8
S'Lev Baz'
p25
sg10
I10
sba(istudent
Student
p26
(dp27
g6
I99
sg7
I3
sg8
S'Price Thesun'
p28
sg10
I11
sba(istudent
Student
p29
(dp30
g6
I404
sg7
I4
sg8
S'Not Found'
p31
sg10
I12
sba(istudent
Student
p32
(dp33
g6
I404
sg7
I4
sg8
S'Young Man'
p34
sg10
I13
sbasb.